; Function Attrs: mustprogress nounwind uwtable
define hidden void @_ZN4DictC2EPFiPKvS1_EPFiS1_E(ptr nocapture noundef nonnull align 8 dereferenceable(40) %0, ptr noundef %1, ptr noundef %2) unnamed_addr #0 align 2 {
  %4 = tail call align 8 ptr @llvm.threadlocal.address.p0(ptr align 8 @_ZN6Thread12_thr_currentE)
  %5 = load ptr, ptr %4, align 8
  %6 = getelementptr inbounds i8, ptr %5, i64 800
  %7 = load ptr, ptr %6, align 8
  store ptr %7, ptr %0, align 8
  %8 = getelementptr inbounds i8, ptr %0, i64 24
  store ptr %2, ptr %8, align 8
  %9 = getelementptr inbounds i8, ptr %0, i64 32
  store ptr %1, ptr %9, align 8
  %10 = getelementptr inbounds i8, ptr %0, i64 16
  store i32 16, ptr %10, align 8
  %11 = getelementptr inbounds i8, ptr %0, i64 20
  store i32 0, ptr %11, align 4
  %12 = getelementptr inbounds i8, ptr %7, i64 40
  %13 = load ptr, ptr %12, align 8
  %14 = getelementptr inbounds i8, ptr %7, i64 32
  %15 = load ptr, ptr %14, align 8
  %16 = ptrtoint ptr %13 to i64
  %17 = ptrtoint ptr %15 to i64
  %18 = sub i64 %16, %17
  %.not.i.i = icmp ult i64 %18, 256
  br i1 %.not.i.i, label %21, label %19

19:                                               ; preds = %3
  %20 = getelementptr inbounds i8, ptr %15, i64 256
  store ptr %20, ptr %14, align 8
  br label %_ZN5Arena12AmallocWordsEmN17AllocFailStrategy13AllocFailEnumE.exit

21:                                               ; preds = %3
  %22 = tail call noundef ptr @_ZN5Arena4growEmN17AllocFailStrategy13AllocFailEnumE(ptr noundef nonnull align 8 dereferenceable(48) %7, i64 noundef 256, i32 noundef 0) #11
  br label %_ZN5Arena12AmallocWordsEmN17AllocFailStrategy13AllocFailEnumE.exit

_ZN5Arena12AmallocWordsEmN17AllocFailStrategy13AllocFailEnumE.exit: ; preds = %19, %21
  %.0.i.i = phi ptr [ %15, %19 ], [ %22, %21 ]
  %23 = getelementptr inbounds i8, ptr %0, i64 8
  store ptr %.0.i.i, ptr %23, align 8
  %24 = load i32, ptr %10, align 8
  %25 = zext i32 %24 to i64
  %26 = shl nuw nsw i64 %25, 4
  tail call void @llvm.memset.p0.i64(ptr align 1 %.0.i.i, i8 0, i64 %26, i1 false)
  ret void
}